target datalayout = "e-m:e-p270:32:32-p271:32:32-p272:64:64-i64:64-i128:128-f80:128-n8:16:32:64-S128"
target triple = "x86_64-pc-linux-gnu"

%struct.settings = type { i64, i32, i32, i32, ptr, i32, i32, i32, ptr, ptr, i32, double, i32, i32, i32, i8, i32, i32, i8, i32, i32, i32, i32, i32, i32, i8, i8, i8, i8, i8, i8, i8, i32, i32, double, double, i32, i32, i8, i32, i8, i8, ptr, i32, i32, i32, i32, double, double, i32, i8, i32, i32, i32, i32, i32, i8, i8, i8, ptr, i32, i32, i32, i32, i32, i32, i32, i32, i32, i32, double, i8, i32, i32, ptr, i32 }
%struct.slabclass_t = type { i32, i32, ptr, i32, i32, ptr, i32 }

@settings = external global %struct.settings, align 8
@slabclass = internal global [64 x %struct.slabclass_t] zeroinitializer, align 16
@power_largest = internal global i32 0, align 4
@mem_limit = internal global i64 0, align 8
@mem_base = internal global ptr null, align 8
@mem_current = internal global ptr null, align 8
@mem_avail = internal global i64 0, align 8
@mem_malloced = internal global i64 0, align 8
@mem_limit_reached = internal global i8 0, align 1

; Function Attrs: nounwind uwtable
define internal void @split_slab_page_into_freelist(ptr noundef %0, i32 noundef %1) #0 {
  %3 = alloca ptr, align 8
  %4 = alloca i32, align 4
  %5 = alloca ptr, align 8
  %6 = alloca i32, align 4
  store ptr %0, ptr %3, align 8, !tbaa !21
  store i32 %1, ptr %4, align 4, !tbaa !8
  call void @llvm.lifetime.start.p0(i64 8, ptr %5) #9
  %7 = load i32, ptr %4, align 4, !tbaa !8
  %8 = zext i32 %7 to i64
  %9 = getelementptr inbounds nuw [64 x %struct.slabclass_t], ptr @slabclass, i64 0, i64 %8
  store ptr %9, ptr %5, align 8, !tbaa !25
  call void @llvm.lifetime.start.p0(i64 4, ptr %6) #9
  store i32 0, ptr %6, align 4, !tbaa !8
  br label %10

10:                                               ; preds = %25, %2
  %11 = load i32, ptr %6, align 4, !tbaa !8
  %12 = load ptr, ptr %5, align 8, !tbaa !25
  %13 = getelementptr inbounds nuw %struct.slabclass_t, ptr %12, i32 0, i32 1
  %14 = load i32, ptr %13, align 4, !tbaa !44
  %15 = icmp ult i32 %11, %14
  br i1 %15, label %16, label %28

16:                                               ; preds = %10
  %17 = load ptr, ptr %3, align 8, !tbaa !21
  %18 = load i32, ptr %4, align 4, !tbaa !8
  call void @do_slabs_free(ptr noundef %17, i32 noundef %18)
  %19 = load ptr, ptr %5, align 8, !tbaa !25
  %20 = getelementptr inbounds nuw %struct.slabclass_t, ptr %19, i32 0, i32 0
  %21 = load i32, ptr %20, align 8, !tbaa !17
  %22 = load ptr, ptr %3, align 8, !tbaa !21
  %23 = zext i32 %21 to i64
  %24 = getelementptr inbounds nuw i8, ptr %22, i64 %23
  store ptr %24, ptr %3, align 8, !tbaa !21
  br label %25

25:                                               ; preds = %16
  %26 = load i32, ptr %6, align 4, !tbaa !8
  %27 = add nsw i32 %26, 1
  store i32 %27, ptr %6, align 4, !tbaa !8
  br label %10, !llvm.loop !70

28:                                               ; preds = %10
  call void @llvm.lifetime.end.p0(i64 4, ptr %6) #9
  call void @llvm.lifetime.end.p0(i64 8, ptr %5) #9
  ret void
}

; Function Attrs: nounwind uwtable
define internal ptr @memory_allocate(i64 noundef %0) #0 {
  %2 = alloca ptr, align 8
  %3 = alloca i64, align 8
  %4 = alloca ptr, align 8
  %5 = alloca i32, align 4
  store i64 %0, ptr %3, align 8, !tbaa !4
  call void @llvm.lifetime.start.p0(i64 8, ptr %4) #9
  %6 = load ptr, ptr @mem_base, align 8, !tbaa !25
  %7 = icmp eq ptr %6, null
  br i1 %7, label %8, label %11

8:                                                ; preds = %1
  %9 = load i64, ptr %3, align 8, !tbaa !4
  %10 = call noalias ptr @malloc(i64 noundef %9) #13
  store ptr %10, ptr %4, align 8, !tbaa !25
  br label %40

11:                                               ; preds = %1
  %12 = load ptr, ptr @mem_current, align 8, !tbaa !25
  store ptr %12, ptr %4, align 8, !tbaa !25
  %13 = load i64, ptr %3, align 8, !tbaa !4
  %14 = load i64, ptr @mem_avail, align 8, !tbaa !4
  %15 = icmp ugt i64 %13, %14
  br i1 %15, label %16, label %17

16:                                               ; preds = %11
  store ptr null, ptr %2, align 8
  store i32 1, ptr %5, align 4
  br label %45

17:                                               ; preds = %11
  %18 = load i64, ptr %3, align 8, !tbaa !4
  %19 = urem i64 %18, 8
  %20 = icmp ne i64 %19, 0
  br i1 %20, label %21, label %27

21:                                               ; preds = %17
  %22 = load i64, ptr %3, align 8, !tbaa !4
  %23 = urem i64 %22, 8
  %24 = sub i64 8, %23
  %25 = load i64, ptr %3, align 8, !tbaa !4
  %26 = add i64 %25, %24
  store i64 %26, ptr %3, align 8, !tbaa !4
  br label %27

27:                                               ; preds = %21, %17
  %28 = load ptr, ptr @mem_current, align 8, !tbaa !25
  %29 = load i64, ptr %3, align 8, !tbaa !4
  %30 = getelementptr inbounds nuw i8, ptr %28, i64 %29
  store ptr %30, ptr @mem_current, align 8, !tbaa !25
  %31 = load i64, ptr %3, align 8, !tbaa !4
  %32 = load i64, ptr @mem_avail, align 8, !tbaa !4
  %33 = icmp ult i64 %31, %32
  br i1 %33, label %34, label %38

34:                                               ; preds = %27
  %35 = load i64, ptr %3, align 8, !tbaa !4
  %36 = load i64, ptr @mem_avail, align 8, !tbaa !4
  %37 = sub i64 %36, %35
  store i64 %37, ptr @mem_avail, align 8, !tbaa !4
  br label %39

38:                                               ; preds = %27
  store i64 0, ptr @mem_avail, align 8, !tbaa !4
  br label %39

39:                                               ; preds = %38, %34
  br label %40

40:                                               ; preds = %39, %8
  %41 = load i64, ptr %3, align 8, !tbaa !4
  %42 = load i64, ptr @mem_malloced, align 8, !tbaa !4
  %43 = add i64 %42, %41
  store i64 %43, ptr @mem_malloced, align 8, !tbaa !4
  %44 = load ptr, ptr %4, align 8, !tbaa !25
  store ptr %44, ptr %2, align 8
  store i32 1, ptr %5, align 4
  br label %45

45:                                               ; preds = %40, %16
  call void @llvm.lifetime.end.p0(i64 8, ptr %4) #9
  %46 = load ptr, ptr %2, align 8
  ret ptr %46
}

; Function Attrs: nounwind uwtable
define internal ptr @get_page_from_global_pool() #0 {
  %1 = alloca ptr, align 8
  %2 = alloca ptr, align 8
  %3 = alloca i32, align 4
  %4 = alloca ptr, align 8
  call void @llvm.lifetime.start.p0(i64 8, ptr %2) #9
  store ptr @slabclass, ptr %2, align 8, !tbaa !25
  %5 = load ptr, ptr %2, align 8, !tbaa !25
  %6 = getelementptr inbounds nuw %struct.slabclass_t, ptr %5, i32 0, i32 4
  %7 = load i32, ptr %6, align 4, !tbaa !27
  %8 = icmp ult i32 %7, 1
  br i1 %8, label %9, label %10

9:                                                ; preds = %0
  store ptr null, ptr %1, align 8
  store i32 1, ptr %3, align 4
  br label %26

10:                                               ; preds = %0
  call void @llvm.lifetime.start.p0(i64 8, ptr %4) #9
  %11 = load ptr, ptr %2, align 8, !tbaa !25
  %12 = getelementptr inbounds nuw %struct.slabclass_t, ptr %11, i32 0, i32 5
  %13 = load ptr, ptr %12, align 8, !tbaa !26
  %14 = load ptr, ptr %2, align 8, !tbaa !25
  %15 = getelementptr inbounds nuw %struct.slabclass_t, ptr %14, i32 0, i32 4
  %16 = load i32, ptr %15, align 4, !tbaa !27
  %17 = sub i32 %16, 1
  %18 = zext i32 %17 to i64
  %19 = getelementptr inbounds nuw ptr, ptr %13, i64 %18
  %20 = load ptr, ptr %19, align 8, !tbaa !25
  store ptr %20, ptr %4, align 8, !tbaa !21
  %21 = load ptr, ptr %2, align 8, !tbaa !25
  %22 = getelementptr inbounds nuw %struct.slabclass_t, ptr %21, i32 0, i32 4
  %23 = load i32, ptr %22, align 4, !tbaa !27
  %24 = add i32 %23, -1
  store i32 %24, ptr %22, align 4, !tbaa !27
  %25 = load ptr, ptr %4, align 8, !tbaa !21
  store ptr %25, ptr %1, align 8
  store i32 1, ptr %3, align 4
  call void @llvm.lifetime.end.p0(i64 8, ptr %4) #9
  br label %26

26:                                               ; preds = %10, %9
  call void @llvm.lifetime.end.p0(i64 8, ptr %2) #9
  %27 = load ptr, ptr %1, align 8
  ret ptr %27
}

; Function Attrs: nounwind uwtable
define internal i32 @do_grow_slab_list(i32 noundef %0) #0 {
  %2 = alloca i32, align 4
  %3 = alloca i32, align 4
  %4 = alloca ptr, align 8
  %5 = alloca i64, align 8
  %6 = alloca ptr, align 8
  %7 = alloca i32, align 4
  store i32 %0, ptr %3, align 4, !tbaa !8
  %8 = load i32, ptr %3, align 4, !tbaa !8
  %9 = load i32, ptr @power_largest, align 4, !tbaa !8
  %10 = icmp ugt i32 %8, %9
  br i1 %10, label %11, label %12

11:                                               ; preds = %1
  store i32 0, ptr %2, align 4
  br label %59

12:                                               ; preds = %1
  call void @llvm.lifetime.start.p0(i64 8, ptr %4) #9
  %13 = load i32, ptr %3, align 4, !tbaa !8
  %14 = zext i32 %13 to i64
  %15 = getelementptr inbounds nuw [64 x %struct.slabclass_t], ptr @slabclass, i64 0, i64 %14
  store ptr %15, ptr %4, align 8, !tbaa !25
  %16 = load ptr, ptr %4, align 8, !tbaa !25
  %17 = getelementptr inbounds nuw %struct.slabclass_t, ptr %16, i32 0, i32 4
  %18 = load i32, ptr %17, align 4, !tbaa !27
  %19 = load ptr, ptr %4, align 8, !tbaa !25
  %20 = getelementptr inbounds nuw %struct.slabclass_t, ptr %19, i32 0, i32 6
  %21 = load i32, ptr %20, align 8, !tbaa !32
  %22 = icmp eq i32 %18, %21
  br i1 %22, label %23, label %57

23:                                               ; preds = %12
  call void @llvm.lifetime.start.p0(i64 8, ptr %5) #9
  %24 = load ptr, ptr %4, align 8, !tbaa !25
  %25 = getelementptr inbounds nuw %struct.slabclass_t, ptr %24, i32 0, i32 6
  %26 = load i32, ptr %25, align 8, !tbaa !32
  %27 = icmp ne i32 %26, 0
  br i1 %27, label %28, label %33

28:                                               ; preds = %23
  %29 = load ptr, ptr %4, align 8, !tbaa !25
  %30 = getelementptr inbounds nuw %struct.slabclass_t, ptr %29, i32 0, i32 6
  %31 = load i32, ptr %30, align 8, !tbaa !32
  %32 = mul i32 %31, 2
  br label %34

33:                                               ; preds = %23
  br label %34

34:                                               ; preds = %33, %28
  %35 = phi i32 [ %32, %28 ], [ 16, %33 ]
  %36 = zext i32 %35 to i64
  store i64 %36, ptr %5, align 8, !tbaa !4
  call void @llvm.lifetime.start.p0(i64 8, ptr %6) #9
  %37 = load ptr, ptr %4, align 8, !tbaa !25
  %38 = getelementptr inbounds nuw %struct.slabclass_t, ptr %37, i32 0, i32 5
  %39 = load ptr, ptr %38, align 8, !tbaa !26
  %40 = load i64, ptr %5, align 8, !tbaa !4
  %41 = mul i64 %40, 8
  %42 = call ptr @realloc(ptr noundef %39, i64 noundef %41) #10
  store ptr %42, ptr %6, align 8, !tbaa !25
  %43 = load ptr, ptr %6, align 8, !tbaa !25
  %44 = icmp eq ptr %43, null
  br i1 %44, label %45, label %46

45:                                               ; preds = %34
  store i32 0, ptr %2, align 4
  store i32 1, ptr %7, align 4
  br label %54

46:                                               ; preds = %34
  %47 = load i64, ptr %5, align 8, !tbaa !4
  %48 = trunc i64 %47 to i32
  %49 = load ptr, ptr %4, align 8, !tbaa !25
  %50 = getelementptr inbounds nuw %struct.slabclass_t, ptr %49, i32 0, i32 6
  store i32 %48, ptr %50, align 8, !tbaa !32
  %51 = load ptr, ptr %6, align 8, !tbaa !25
  %52 = load ptr, ptr %4, align 8, !tbaa !25
  %53 = getelementptr inbounds nuw %struct.slabclass_t, ptr %52, i32 0, i32 5
  store ptr %51, ptr %53, align 8, !tbaa !26
  store i32 0, ptr %7, align 4
  br label %54

54:                                               ; preds = %46, %45
  call void @llvm.lifetime.end.p0(i64 8, ptr %6) #9
  call void @llvm.lifetime.end.p0(i64 8, ptr %5) #9
  %55 = load i32, ptr %7, align 4
  switch i32 %55, label %58 [
    i32 0, label %56
  ]

56:                                               ; preds = %54
  br label %57

57:                                               ; preds = %56, %12
  store i32 1, ptr %2, align 4
  store i32 1, ptr %7, align 4
  br label %58

58:                                               ; preds = %57, %54
  call void @llvm.lifetime.end.p0(i64 8, ptr %4) #9
  br label %59

59:                                               ; preds = %58, %11
  %60 = load i32, ptr %2, align 4
  ret i32 %60
}

; Function Attrs: nounwind uwtable
define internal i32 @do_slabs_newslab(i32 noundef %0) #0 {
  %2 = alloca i32, align 4
  %3 = alloca i32, align 4
  %4 = alloca ptr, align 8
  %5 = alloca ptr, align 8
  %6 = alloca i32, align 4
  %7 = alloca ptr, align 8
  %8 = alloca i32, align 4
  store i32 %0, ptr %3, align 4, !tbaa !8
  call void @llvm.lifetime.start.p0(i64 8, ptr %4) #9
  %9 = load i32, ptr %3, align 4, !tbaa !8
  %10 = zext i32 %9 to i64
  %11 = getelementptr inbounds nuw [64 x %struct.slabclass_t], ptr @slabclass, i64 0, i64 %10
  store ptr %11, ptr %4, align 8, !tbaa !25
  call void @llvm.lifetime.start.p0(i64 8, ptr %5) #9
  store ptr @slabclass, ptr %5, align 8, !tbaa !25
  call void @llvm.lifetime.start.p0(i64 4, ptr %6) #9
  %12 = load i8, ptr getelementptr inbounds nuw (%struct.settings, ptr @settings, i32 0, i32 30), align 1, !tbaa !71, !range !38, !noundef !39
  %13 = trunc i8 %12 to i1
  br i1 %13, label %18, label %14

14:                                               ; preds = %1
  %15 = load i32, ptr getelementptr inbounds nuw (%struct.settings, ptr @settings, i32 0, i32 22), align 8, !tbaa !42
  %16 = load i32, ptr getelementptr inbounds nuw (%struct.settings, ptr @settings, i32 0, i32 23), align 4, !tbaa !43
  %17 = icmp ne i32 %15, %16
  br i1 %17, label %18, label %20

18:                                               ; preds = %14, %1
  %19 = load i32, ptr getelementptr inbounds nuw (%struct.settings, ptr @settings, i32 0, i32 23), align 4, !tbaa !43
  br label %28

20:                                               ; preds = %14
  %21 = load ptr, ptr %4, align 8, !tbaa !25
  %22 = getelementptr inbounds nuw %struct.slabclass_t, ptr %21, i32 0, i32 0
  %23 = load i32, ptr %22, align 8, !tbaa !17
  %24 = load ptr, ptr %4, align 8, !tbaa !25
  %25 = getelementptr inbounds nuw %struct.slabclass_t, ptr %24, i32 0, i32 1
  %26 = load i32, ptr %25, align 4, !tbaa !44
  %27 = mul i32 %23, %26
  br label %28

28:                                               ; preds = %20, %18
  %29 = phi i32 [ %19, %18 ], [ %27, %20 ]
  store i32 %29, ptr %6, align 4, !tbaa !8
  call void @llvm.lifetime.start.p0(i64 8, ptr %7) #9
  %30 = load i64, ptr @mem_limit, align 8, !tbaa !4
  %31 = icmp ne i64 %30, 0
  br i1 %31, label %32, label %50

32:                                               ; preds = %28
  %33 = load i64, ptr @mem_malloced, align 8, !tbaa !4
  %34 = load i32, ptr %6, align 4, !tbaa !8
  %35 = sext i32 %34 to i64
  %36 = add i64 %33, %35
  %37 = load i64, ptr @mem_limit, align 8, !tbaa !4
  %38 = icmp ugt i64 %36, %37
  br i1 %38, label %39, label %50

39:                                               ; preds = %32
  %40 = load ptr, ptr %4, align 8, !tbaa !25
  %41 = getelementptr inbounds nuw %struct.slabclass_t, ptr %40, i32 0, i32 4
  %42 = load i32, ptr %41, align 4, !tbaa !27
  %43 = icmp ugt i32 %42, 0
  br i1 %43, label %44, label %50

44:                                               ; preds = %39
  %45 = load ptr, ptr %5, align 8, !tbaa !25
  %46 = getelementptr inbounds nuw %struct.slabclass_t, ptr %45, i32 0, i32 4
  %47 = load i32, ptr %46, align 4, !tbaa !27
  %48 = icmp eq i32 %47, 0
  br i1 %48, label %49, label %50

49:                                               ; preds = %44
  store i8 1, ptr @mem_limit_reached, align 1, !tbaa !34
  store i32 0, ptr %2, align 4
  store i32 1, ptr %8, align 4
  br label %79

50:                                               ; preds = %44, %39, %32, %28
  %51 = load i32, ptr %3, align 4, !tbaa !8
  %52 = call i32 @do_grow_slab_list(i32 noundef %51)
  %53 = icmp eq i32 %52, 0
  br i1 %53, label %62, label %54

54:                                               ; preds = %50
  %55 = call ptr @get_page_from_global_pool()
  store ptr %55, ptr %7, align 8, !tbaa !21
  %56 = icmp eq ptr %55, null
  br i1 %56, label %57, label %63

57:                                               ; preds = %54
  %58 = load i32, ptr %6, align 4, !tbaa !8
  %59 = sext i32 %58 to i64
  %60 = call ptr @memory_allocate(i64 noundef %59)
  store ptr %60, ptr %7, align 8, !tbaa !21
  %61 = icmp eq ptr %60, null
  br i1 %61, label %62, label %63

62:                                               ; preds = %57, %50
  store i32 0, ptr %2, align 4
  store i32 1, ptr %8, align 4
  br label %79

63:                                               ; preds = %57, %54
  %64 = load ptr, ptr %7, align 8, !tbaa !21
  %65 = load i32, ptr %6, align 4, !tbaa !8
  %66 = sext i32 %65 to i64
  call void @llvm.memset.p0.i64(ptr align 1 %64, i8 0, i64 %66, i1 false)
  %67 = load ptr, ptr %7, align 8, !tbaa !21
  %68 = load i32, ptr %3, align 4, !tbaa !8
  call void @split_slab_page_into_freelist(ptr noundef %67, i32 noundef %68)
  %69 = load ptr, ptr %7, align 8, !tbaa !21
  %70 = load ptr, ptr %4, align 8, !tbaa !25
  %71 = getelementptr inbounds nuw %struct.slabclass_t, ptr %70, i32 0, i32 5
  %72 = load ptr, ptr %71, align 8, !tbaa !26
  %73 = load ptr, ptr %4, align 8, !tbaa !25
  %74 = getelementptr inbounds nuw %struct.slabclass_t, ptr %73, i32 0, i32 4
  %75 = load i32, ptr %74, align 4, !tbaa !27
  %76 = add i32 %75, 1
  store i32 %76, ptr %74, align 4, !tbaa !27
  %77 = zext i32 %75 to i64
  %78 = getelementptr inbounds nuw ptr, ptr %72, i64 %77
  store ptr %69, ptr %78, align 8, !tbaa !25
  store i32 1, ptr %2, align 4
  store i32 1, ptr %8, align 4
  br label %79

79:                                               ; preds = %63, %62, %49
  call void @llvm.lifetime.end.p0(i64 8, ptr %7) #9
  call void @llvm.lifetime.end.p0(i64 4, ptr %6) #9
  call void @llvm.lifetime.end.p0(i64 8, ptr %5) #9
  call void @llvm.lifetime.end.p0(i64 8, ptr %4) #9
  %80 = load i32, ptr %2, align 4
  ret i32 %80
}