; Function Attrs: nounwind uwtable
define internal fastcc range(i32 0, 2) i32 @do_slabs_newslab(i32 noundef %0) unnamed_addr #4 {
  %2 = zext i32 %0 to i64
  %3 = getelementptr inbounds nuw [64 x %struct.slabclass_t], ptr @slabclass, i64 0, i64 %2
  %4 = load i8, ptr getelementptr inbounds nuw (i8, ptr @settings, i64 137), align 1, !tbaa !63, !range !64, !noundef !65
  %5 = trunc nuw i8 %4 to i1
  %.pre = load i32, ptr getelementptr inbounds nuw (i8, ptr @settings, i64 124), align 4, !tbaa !37
  %6 = load i32, ptr getelementptr inbounds nuw (i8, ptr @settings, i64 120), align 8
  %.not = icmp ne i32 %6, %.pre
  %or.cond33.not = select i1 %5, i1 true, i1 %.not
  br i1 %or.cond33.not, label %12, label %7

7:                                                ; preds = %1
  %8 = load i32, ptr %3, align 8, !tbaa !4
  %9 = getelementptr inbounds nuw i8, ptr %3, i64 4
  %10 = load i32, ptr %9, align 4, !tbaa !38
  %11 = mul i32 %10, %8
  br label %12

12:                                               ; preds = %1, %7
  %13 = phi i32 [ %11, %7 ], [ %.pre, %1 ]
  %14 = load i64, ptr @mem_limit, align 8, !tbaa !31
  %.not19 = icmp eq i64 %14, 0
  br i1 %.not19, label %27, label %15

15:                                               ; preds = %12
  %16 = load i64, ptr @mem_malloced, align 8, !tbaa !31
  %17 = sext i32 %13 to i64
  %18 = add i64 %16, %17
  %19 = icmp ugt i64 %18, %14
  br i1 %19, label %20, label %27

20:                                               ; preds = %15
  %21 = getelementptr inbounds nuw i8, ptr %3, i64 20
  %22 = load i32, ptr %21, align 4, !tbaa !13
  %.not20 = icmp ne i32 %22, 0
  %23 = load i32, ptr getelementptr inbounds nuw (i8, ptr @slabclass, i64 20), align 4
  %24 = icmp eq i32 %23, 0
  %or.cond = select i1 %.not20, i1 %24, i1 false
  %25 = load i32, ptr @power_largest, align 4
  %26 = icmp ugt i32 %0, %25
  %or.cond28 = select i1 %or.cond, i1 true, i1 %26
  br i1 %or.cond28, label %do_grow_slab_list.exit.thread, label %28

27:                                               ; preds = %15, %12
  %.old = load i32, ptr @power_largest, align 4, !tbaa !17
  %.old27 = icmp ugt i32 %0, %.old
  br i1 %.old27, label %do_grow_slab_list.exit.thread, label %._crit_edge

._crit_edge:                                      ; preds = %27
  %.phi.trans.insert = getelementptr inbounds nuw i8, ptr %3, i64 20
  %.pre29 = load i32, ptr %.phi.trans.insert, align 4, !tbaa !13
  br label %28

28:                                               ; preds = %._crit_edge, %20
  %29 = phi i32 [ %.pre29, %._crit_edge ], [ %22, %20 ]
  %30 = getelementptr inbounds nuw i8, ptr %3, i64 20
  %31 = getelementptr inbounds nuw i8, ptr %3, i64 32
  %32 = load i32, ptr %31, align 8, !tbaa !14
  %33 = icmp eq i32 %29, %32
  br i1 %33, label %34, label %do_grow_slab_list.exit

34:                                               ; preds = %28
  %.not.i = icmp eq i32 %29, 0
  %35 = shl i32 %29, 1
  %spec.select.i = select i1 %.not.i, i32 16, i32 %35
  %36 = zext i32 %spec.select.i to i64
  %37 = getelementptr inbounds nuw i8, ptr %3, i64 24
  %38 = load ptr, ptr %37, align 8, !tbaa !15
  %39 = shl nuw nsw i64 %36, 3
  %40 = tail call ptr @realloc(ptr noundef %38, i64 noundef %39) #20
  %.not18.i = icmp eq ptr %40, null
  br i1 %.not18.i, label %do_grow_slab_list.exit.thread, label %41

41:                                               ; preds = %34
  store i32 %spec.select.i, ptr %31, align 8, !tbaa !14
  store ptr %40, ptr %37, align 8, !tbaa !15
  br label %do_grow_slab_list.exit

do_grow_slab_list.exit:                           ; preds = %41, %28
  %42 = load i32, ptr getelementptr inbounds nuw (i8, ptr @slabclass, i64 20), align 4, !tbaa !13
  %43 = icmp eq i32 %42, 0
  br i1 %43, label %get_page_from_global_pool.exit.thread, label %get_page_from_global_pool.exit

get_page_from_global_pool.exit:                   ; preds = %do_grow_slab_list.exit
  %44 = load ptr, ptr getelementptr inbounds nuw (i8, ptr @slabclass, i64 24), align 8, !tbaa !15
  %45 = add i32 %42, -1
  %46 = zext i32 %45 to i64
  %47 = getelementptr inbounds nuw ptr, ptr %44, i64 %46
  %48 = load ptr, ptr %47, align 8, !tbaa !16
  store i32 %45, ptr getelementptr inbounds nuw (i8, ptr @slabclass, i64 20), align 4, !tbaa !13
  %49 = icmp eq ptr %48, null
  br i1 %49, label %get_page_from_global_pool.exit.thread, label %get_page_from_global_pool.exit._crit_edge

get_page_from_global_pool.exit._crit_edge:        ; preds = %get_page_from_global_pool.exit
  %.pre30 = sext i32 %13 to i64
  br label %68

get_page_from_global_pool.exit.thread:            ; preds = %do_grow_slab_list.exit, %get_page_from_global_pool.exit
  %50 = sext i32 %13 to i64
  %51 = load ptr, ptr @mem_base, align 8, !tbaa !16
  %52 = icmp eq ptr %51, null
  br i1 %52, label %53, label %55

53:                                               ; preds = %get_page_from_global_pool.exit.thread
  %54 = tail call noalias ptr @malloc(i64 noundef range(i64 -2147483648, 2147483648) %50) #25
  br label %memory_allocate.exit

55:                                               ; preds = %get_page_from_global_pool.exit.thread
  %56 = load ptr, ptr @mem_current, align 8, !tbaa !16
  %57 = load i64, ptr @mem_avail, align 8, !tbaa !31
  %58 = icmp ult i64 %57, %50
  br i1 %58, label %do_grow_slab_list.exit.thread, label %59

59:                                               ; preds = %55
  %.biased.i = add nsw i64 %50, 7
  %.1.i = and i64 %.biased.i, -8
  %60 = getelementptr inbounds nuw i8, ptr %56, i64 %.1.i
  store ptr %60, ptr @mem_current, align 8, !tbaa !16
  %61 = icmp ult i64 %.1.i, %57
  br i1 %61, label %62, label %64

62:                                               ; preds = %59
  %63 = sub nuw i64 %57, %.1.i
  store i64 %63, ptr @mem_avail, align 8, !tbaa !31
  br label %memory_allocate.exit

64:                                               ; preds = %59
  store i64 0, ptr @mem_avail, align 8, !tbaa !31
  br label %memory_allocate.exit

memory_allocate.exit:                             ; preds = %53, %62, %64
  %.010.i = phi i64 [ %50, %53 ], [ %.1.i, %62 ], [ %.1.i, %64 ]
  %.0.i22 = phi ptr [ %54, %53 ], [ %56, %62 ], [ %56, %64 ]
  %65 = load i64, ptr @mem_malloced, align 8, !tbaa !31
  %66 = add i64 %65, %.010.i
  store i64 %66, ptr @mem_malloced, align 8, !tbaa !31
  %67 = icmp eq ptr %.0.i22, null
  br i1 %67, label %do_grow_slab_list.exit.thread, label %68

68:                                               ; preds = %get_page_from_global_pool.exit._crit_edge, %memory_allocate.exit
  %.pre-phi = phi i64 [ %.pre30, %get_page_from_global_pool.exit._crit_edge ], [ %50, %memory_allocate.exit ]
  %.0 = phi ptr [ %48, %get_page_from_global_pool.exit._crit_edge ], [ %.0.i22, %memory_allocate.exit ]
  tail call void @llvm.memset.p0.i64(ptr nonnull align 1 %.0, i8 0, i64 %.pre-phi, i1 false)
  %69 = getelementptr inbounds nuw i8, ptr %3, i64 4
  %70 = load i32, ptr %69, align 4, !tbaa !38
  %.not.i23 = icmp eq i32 %70, 0
  br i1 %.not.i23, label %split_slab_page_into_freelist.exit, label %.lr.ph.i

.lr.ph.i:                                         ; preds = %68, %.lr.ph.i
  %.09.i = phi i32 [ %74, %.lr.ph.i ], [ 0, %68 ]
  %.078.i = phi ptr [ %73, %.lr.ph.i ], [ %.0, %68 ]
  tail call fastcc void @do_slabs_free(ptr noundef %.078.i, i32 noundef %0)
  %71 = load i32, ptr %3, align 8, !tbaa !4
  %72 = zext i32 %71 to i64
  %73 = getelementptr inbounds nuw i8, ptr %.078.i, i64 %72
  %74 = add nuw nsw i32 %.09.i, 1
  %75 = load i32, ptr %69, align 4, !tbaa !38
  %76 = icmp ult i32 %74, %75
  br i1 %76, label %.lr.ph.i, label %split_slab_page_into_freelist.exit, !llvm.loop !67

split_slab_page_into_freelist.exit:               ; preds = %.lr.ph.i, %68
  %77 = getelementptr inbounds nuw i8, ptr %3, i64 24
  %78 = load ptr, ptr %77, align 8, !tbaa !15
  %79 = load i32, ptr %30, align 4, !tbaa !13
  %80 = add i32 %79, 1
  store i32 %80, ptr %30, align 4, !tbaa !13
  %81 = zext i32 %79 to i64
  %82 = getelementptr inbounds nuw ptr, ptr %78, i64 %81
  store ptr %.0, ptr %82, align 8, !tbaa !16
  br label %do_grow_slab_list.exit.thread

do_grow_slab_list.exit.thread:                    ; preds = %55, %34, %27, %memory_allocate.exit, %20, %split_slab_page_into_freelist.exit
  %.015 = phi i32 [ 1, %split_slab_page_into_freelist.exit ], [ 0, %20 ], [ 0, %memory_allocate.exit ], [ 0, %27 ], [ 0, %34 ], [ 0, %55 ]
  ret i32 %.015
}